; Function Attrs: nounwind uwtable
define dso_local ptr @FindTupleHashEntry(ptr noundef captures(none) initializes((72, 96)) %0, ptr noundef %1, ptr noundef %2, ptr noundef %3) local_unnamed_addr #0 {
  %5 = getelementptr inbounds nuw i8, ptr %0, i64 56
  %6 = load ptr, ptr %5, align 8
  %7 = load ptr, ptr @CurrentMemoryContext, align 8
  store ptr %6, ptr @CurrentMemoryContext, align 8
  %8 = getelementptr inbounds nuw i8, ptr %0, i64 72
  store ptr %1, ptr %8, align 8
  %9 = getelementptr inbounds nuw i8, ptr %0, i64 80
  store ptr %3, ptr %9, align 8
  %10 = getelementptr inbounds nuw i8, ptr %0, i64 88
  store ptr %2, ptr %10, align 8
  %11 = load ptr, ptr %0, align 8
  %12 = tail call ptr @tuplehash_lookup(ptr noundef %11, ptr noundef null)
  store ptr %7, ptr @CurrentMemoryContext, align 8
  ret ptr %12
}